; Function Attrs: nounwind uwtable
define dso_local range(i32 -20009, 1) i32 @hmac_md5_test() local_unnamed_addr #0 {
  %1 = alloca %struct.Hmac, align 16
  %2 = alloca [16 x i8], align 16
  %3 = alloca [3 x %struct.testVector], align 16
  call void @llvm.lifetime.start.p0(i64 784, ptr nonnull %1) #6
  call void @llvm.lifetime.start.p0(i64 16, ptr nonnull %2) #6
  call void @llvm.lifetime.start.p0(i64 96, ptr nonnull %3) #6
  store ptr @.str.53, ptr %3, align 16, !tbaa !4
  %.sroa.518.0..sroa_idx = getelementptr inbounds nuw i8, ptr %3, i64 8
  store ptr @.str.54, ptr %.sroa.518.0..sroa_idx, align 8, !tbaa !4
  %.sroa.719.0..sroa_idx = getelementptr inbounds nuw i8, ptr %3, i64 16
  store i64 8, ptr %.sroa.719.0..sroa_idx, align 16, !tbaa !9
  %4 = getelementptr inbounds nuw i8, ptr %3, i64 32
  store ptr @.str.55, ptr %4, align 16, !tbaa !4
  %.sroa.514.0..sroa_idx = getelementptr inbounds nuw i8, ptr %3, i64 40
  store ptr @.str.56, ptr %.sroa.514.0..sroa_idx, align 8, !tbaa !4
  %.sroa.715.0..sroa_idx = getelementptr inbounds nuw i8, ptr %3, i64 48
  store i64 28, ptr %.sroa.715.0..sroa_idx, align 16, !tbaa !9
  %5 = getelementptr inbounds nuw i8, ptr %3, i64 64
  store ptr @.str.57, ptr %5, align 16, !tbaa !4
  %.sroa.5.0..sroa_idx = getelementptr inbounds nuw i8, ptr %3, i64 72
  store ptr @.str.58, ptr %.sroa.5.0..sroa_idx, align 8, !tbaa !4
  %.sroa.7.0..sroa_idx = getelementptr inbounds nuw i8, ptr %3, i64 80
  store i64 50, ptr %.sroa.7.0..sroa_idx, align 16, !tbaa !9
  %6 = call i32 @wc_HmacInit(ptr noundef nonnull %1, ptr noundef null, i32 noundef -2) #6
  %.not = icmp eq i32 %6, 0
  br i1 %.not, label %.preheader, label %.loopexit

.preheader:                                       ; preds = %0, %27
  %indvars.iv = phi i64 [ %indvars.iv.next, %27 ], [ 0, %0 ]
  %7 = getelementptr inbounds nuw [3 x ptr], ptr @__const.hmac_md5_test.keys, i64 0, i64 %indvars.iv
  %8 = load ptr, ptr %7, align 8, !tbaa !4
  %9 = call i64 @strlen(ptr noundef nonnull dereferenceable(1) %8) #7
  %10 = trunc i64 %9 to i32
  %11 = call i32 @wc_HmacSetKey(ptr noundef nonnull %1, i32 noundef 3, ptr noundef nonnull %8, i32 noundef %10) #6
  %.not23 = icmp eq i32 %11, 0
  br i1 %.not23, label %12, label %.loopexit

12:                                               ; preds = %.preheader
  %13 = getelementptr inbounds nuw [3 x %struct.testVector], ptr %3, i64 0, i64 %indvars.iv
  %14 = load ptr, ptr %13, align 16, !tbaa !11
  %15 = getelementptr inbounds nuw i8, ptr %13, i64 16
  %16 = load i64, ptr %15, align 16, !tbaa !13
  %17 = trunc i64 %16 to i32
  %18 = call i32 @wc_HmacUpdate(ptr noundef nonnull %1, ptr noundef %14, i32 noundef %17) #6
  %.not24 = icmp eq i32 %18, 0
  br i1 %.not24, label %19, label %.loopexit

19:                                               ; preds = %12
  %20 = call i32 @wc_HmacFinal(ptr noundef nonnull %1, ptr noundef nonnull %2) #6
  %.not25 = icmp eq i32 %20, 0
  br i1 %.not25, label %21, label %.loopexit

21:                                               ; preds = %19
  %22 = getelementptr inbounds nuw i8, ptr %13, i64 8
  %23 = load ptr, ptr %22, align 8, !tbaa !14
  %bcmp = call i32 @bcmp(ptr noundef nonnull dereferenceable(16) %2, ptr noundef nonnull dereferenceable(16) %23, i64 16)
  %.not26 = icmp eq i32 %bcmp, 0
  br i1 %.not26, label %27, label %24

24:                                               ; preds = %21
  %25 = trunc nuw nsw i64 %indvars.iv to i32
  %26 = sub nuw nsw i32 -20, %25
  br label %.loopexit

27:                                               ; preds = %21
  %indvars.iv.next = add nuw nsw i64 %indvars.iv, 1
  %exitcond.not = icmp eq i64 %indvars.iv.next, 3
  br i1 %exitcond.not, label %28, label %.preheader, !llvm.loop !22

28:                                               ; preds = %27
  call void @wc_HmacFree(ptr noundef nonnull %1) #6
  br label %.loopexit

.loopexit:                                        ; preds = %19, %12, %.preheader, %0, %28, %24
  %.022 = phi i32 [ %26, %24 ], [ 0, %28 ], [ -20009, %0 ], [ -4016, %19 ], [ -4015, %12 ], [ -4014, %.preheader ]
  call void @llvm.lifetime.end.p0(i64 96, ptr nonnull %3) #6
  call void @llvm.lifetime.end.p0(i64 16, ptr nonnull %2) #6
  call void @llvm.lifetime.end.p0(i64 784, ptr nonnull %1) #6
  ret i32 %.022
}